; Function Attrs: mustprogress nounwind uwtable
define internal noundef zeroext i1 @"_ZNSt17_Function_handlerIFbRKN4llvm13LegalityQueryEEZNS0_20AArch64LegalizerInfoC1ERKNS0_16AArch64SubtargetEE4$_37E10_M_managerERSt9_Any_dataRKSB_St18_Manager_operation"(ptr nocapture noundef nonnull align 8 dereferenceable(16) %0, ptr nocapture noundef nonnull readonly align 8 dereferenceable(16) %1, i32 noundef %2) #0 align 2 {
  %.val = load ptr, ptr %1, align 8
  switch i32 %2, label %"_ZNSt14_Function_base13_Base_managerIZN4llvm20AArch64LegalizerInfoC1ERKNS1_16AArch64SubtargetEE4$_37E10_M_managerERSt9_Any_dataRKS8_St18_Manager_operation.exit" [
    i32 1, label %4
    i32 0, label %5
    i32 3, label %17
    i32 2, label %6
  ]

4:                                                ; preds = %3
  store ptr %.val, ptr %0, align 8
  br label %"_ZNSt14_Function_base13_Base_managerIZN4llvm20AArch64LegalizerInfoC1ERKNS1_16AArch64SubtargetEE4$_37E10_M_managerERSt9_Any_dataRKS8_St18_Manager_operation.exit"

5:                                                ; preds = %3
  store ptr null, ptr %0, align 8
  br label %"_ZNSt14_Function_base13_Base_managerIZN4llvm20AArch64LegalizerInfoC1ERKNS1_16AArch64SubtargetEE4$_37E10_M_managerERSt9_Any_dataRKS8_St18_Manager_operation.exit"

6:                                                ; preds = %3
  %7 = tail call noalias noundef nonnull dereferenceable(32) ptr @_Znwm(i64 noundef 32) #21
  %8 = getelementptr inbounds nuw i8, ptr %.val, i64 16
  tail call void @llvm.memset.p0.i64(ptr noundef nonnull align 8 dereferenceable(32) %7, i8 0, i64 32, i1 false)
  %9 = load ptr, ptr %8, align 8
  %.not.i.i.not.i.i.i.i.i = icmp eq ptr %9, null
  br i1 %.not.i.i.not.i.i.i.i.i, label %"_ZNSt14_Function_base13_Base_managerIZN4llvm20AArch64LegalizerInfoC1ERKNS1_16AArch64SubtargetEE4$_37E15_M_init_functorIRKS6_EEvRSt9_Any_dataOT_.exit.i", label %10

10:                                               ; preds = %6
  %11 = getelementptr inbounds nuw i8, ptr %7, i64 24
  %12 = getelementptr inbounds nuw i8, ptr %7, i64 16
  %13 = tail call noundef zeroext i1 %9(ptr noundef nonnull align 8 dereferenceable(16) %7, ptr noundef nonnull align 8 dereferenceable(16) %.val, i32 noundef 2) #20
  %14 = getelementptr inbounds nuw i8, ptr %.val, i64 24
  %15 = load ptr, ptr %14, align 8
  store ptr %15, ptr %11, align 8
  %16 = load ptr, ptr %8, align 8
  store ptr %16, ptr %12, align 8
  br label %"_ZNSt14_Function_base13_Base_managerIZN4llvm20AArch64LegalizerInfoC1ERKNS1_16AArch64SubtargetEE4$_37E15_M_init_functorIRKS6_EEvRSt9_Any_dataOT_.exit.i"

"_ZNSt14_Function_base13_Base_managerIZN4llvm20AArch64LegalizerInfoC1ERKNS1_16AArch64SubtargetEE4$_37E15_M_init_functorIRKS6_EEvRSt9_Any_dataOT_.exit.i": ; preds = %10, %6
  store ptr %7, ptr %0, align 8
  br label %"_ZNSt14_Function_base13_Base_managerIZN4llvm20AArch64LegalizerInfoC1ERKNS1_16AArch64SubtargetEE4$_37E10_M_managerERSt9_Any_dataRKS8_St18_Manager_operation.exit"

17:                                               ; preds = %3
  %.val6.i = load ptr, ptr %0, align 8
  %18 = icmp eq ptr %.val6.i, null
  br i1 %18, label %"_ZNSt14_Function_base13_Base_managerIZN4llvm20AArch64LegalizerInfoC1ERKNS1_16AArch64SubtargetEE4$_37E10_M_managerERSt9_Any_dataRKS8_St18_Manager_operation.exit", label %19

19:                                               ; preds = %17
  %20 = getelementptr inbounds nuw i8, ptr %.val6.i, i64 16
  %21 = load ptr, ptr %20, align 8
  %.not.i.i.i.i.i = icmp eq ptr %21, null
  br i1 %.not.i.i.i.i.i, label %"_ZZN4llvm20AArch64LegalizerInfoC1ERKNS_16AArch64SubtargetEEN4$_37D2Ev.exit.i.i", label %22

22:                                               ; preds = %19
  %23 = tail call noundef zeroext i1 %21(ptr noundef nonnull align 8 dereferenceable(16) %.val6.i, ptr noundef nonnull align 8 dereferenceable(16) %.val6.i, i32 noundef 3) #20
  br label %"_ZZN4llvm20AArch64LegalizerInfoC1ERKNS_16AArch64SubtargetEEN4$_37D2Ev.exit.i.i"

"_ZZN4llvm20AArch64LegalizerInfoC1ERKNS_16AArch64SubtargetEEN4$_37D2Ev.exit.i.i": ; preds = %22, %19
  tail call void @_ZdlPvm(ptr noundef nonnull %.val6.i, i64 noundef 32) #22
  br label %"_ZNSt14_Function_base13_Base_managerIZN4llvm20AArch64LegalizerInfoC1ERKNS1_16AArch64SubtargetEE4$_37E10_M_managerERSt9_Any_dataRKS8_St18_Manager_operation.exit"

"_ZNSt14_Function_base13_Base_managerIZN4llvm20AArch64LegalizerInfoC1ERKNS1_16AArch64SubtargetEE4$_37E10_M_managerERSt9_Any_dataRKS8_St18_Manager_operation.exit": ; preds = %3, %"_ZZN4llvm20AArch64LegalizerInfoC1ERKNS_16AArch64SubtargetEEN4$_37D2Ev.exit.i.i", %17, %"_ZNSt14_Function_base13_Base_managerIZN4llvm20AArch64LegalizerInfoC1ERKNS1_16AArch64SubtargetEE4$_37E15_M_init_functorIRKS6_EEvRSt9_Any_dataOT_.exit.i", %5, %4
  ret i1 false
}